; Function Attrs: mustprogress nounwind uwtable
define internal fastcc void @_ZNSt14priority_queueIN8facebook5velox6memory12_GLOBAL__N_111MemoryUsageESt6vectorIS4_SaIS4_EENS3_15MemoryUsageCompEED2Ev(ptr nocapture noundef nonnull readonly align 8 dereferenceable(25) %this) unnamed_addr #5 align 2 personality ptr @__gxx_personality_v0 {
entry:
  %0 = load ptr, ptr %this, align 8
  %_M_finish.i = getelementptr inbounds i8, ptr %this, i64 8
  %1 = load ptr, ptr %_M_finish.i, align 8
  %cmp.not3.i.i.i.i = icmp eq ptr %0, %1
  br i1 %cmp.not3.i.i.i.i, label %invoke.cont.i, label %for.body.i.i.i.i

for.body.i.i.i.i:                                 ; preds = %entry, %for.body.i.i.i.i
  %__first.addr.04.i.i.i.i = phi ptr [ %incdec.ptr.i.i.i.i, %for.body.i.i.i.i ], [ %0, %entry ]
  tail call void @_ZNSt7__cxx1112basic_stringIcSt11char_traitsIcESaIcEED1Ev(ptr noundef nonnull align 8 dereferenceable(32) %__first.addr.04.i.i.i.i) #26
  %incdec.ptr.i.i.i.i = getelementptr inbounds i8, ptr %__first.addr.04.i.i.i.i, i64 56
  %cmp.not.i.i.i.i = icmp eq ptr %incdec.ptr.i.i.i.i, %1
  br i1 %cmp.not.i.i.i.i, label %invoke.contthread-pre-split.i, label %for.body.i.i.i.i, !llvm.loop !70

invoke.contthread-pre-split.i:                    ; preds = %for.body.i.i.i.i
  %this.val.pr.i = load ptr, ptr %this, align 8
  br label %invoke.cont.i

invoke.cont.i:                                    ; preds = %invoke.contthread-pre-split.i, %entry
  %this.val.i = phi ptr [ %this.val.pr.i, %invoke.contthread-pre-split.i ], [ %0, %entry ]
  %tobool.not.i.i.i = icmp eq ptr %this.val.i, null
  br i1 %tobool.not.i.i.i, label %_ZNSt6vectorIN8facebook5velox6memory12_GLOBAL__N_111MemoryUsageESaIS4_EED2Ev.exit, label %if.then.i.i.i

if.then.i.i.i:                                    ; preds = %invoke.cont.i
  tail call void @_ZdlPv(ptr noundef nonnull %this.val.i) #27
  br label %_ZNSt6vectorIN8facebook5velox6memory12_GLOBAL__N_111MemoryUsageESaIS4_EED2Ev.exit

_ZNSt6vectorIN8facebook5velox6memory12_GLOBAL__N_111MemoryUsageESaIS4_EED2Ev.exit: ; preds = %invoke.cont.i, %if.then.i.i.i
  ret void
}